target datalayout = "e-m:e-p270:32:32-p271:32:32-p272:64:64-i64:64-i128:128-f80:128-n8:16:32:64-S128"
target triple = "x86_64-pc-linux-gnu"

%struct._lv_event_t = type { ptr, ptr, i32, ptr, ptr, ptr, i8 }

; Function Attrs: nounwind uwtable
define void @lv_event_set_ext_draw_size(ptr noundef %0, i32 noundef %1) #0 {
  %3 = alloca ptr, align 8
  %4 = alloca i32, align 4
  %5 = alloca ptr, align 8
  store ptr %0, ptr %3, align 8, !tbaa !3
  store i32 %1, ptr %4, align 4, !tbaa !7
  %6 = load ptr, ptr %3, align 8, !tbaa !3
  %7 = getelementptr inbounds nuw %struct._lv_event_t, ptr %6, i32 0, i32 2
  %8 = load i32, ptr %7, align 8, !tbaa !12
  %9 = icmp eq i32 %8, 27
  br i1 %9, label %10, label %25

10:                                               ; preds = %2
  call void @llvm.lifetime.start.p0(i64 8, ptr %5) #3
  %11 = load ptr, ptr %3, align 8, !tbaa !3
  %12 = call ptr @lv_event_get_param(ptr noundef %11)
  store ptr %12, ptr %5, align 8, !tbaa !3
  %13 = load ptr, ptr %5, align 8, !tbaa !3
  %14 = load i32, ptr %13, align 4, !tbaa !7
  %15 = load i32, ptr %4, align 4, !tbaa !7
  %16 = icmp sgt i32 %14, %15
  br i1 %16, label %17, label %20

17:                                               ; preds = %10
  %18 = load ptr, ptr %5, align 8, !tbaa !3
  %19 = load i32, ptr %18, align 4, !tbaa !7
  br label %22

20:                                               ; preds = %10
  %21 = load i32, ptr %4, align 4, !tbaa !7
  br label %22

22:                                               ; preds = %20, %17
  %23 = phi i32 [ %19, %17 ], [ %21, %20 ]
  %24 = load ptr, ptr %5, align 8, !tbaa !3
  store i32 %23, ptr %24, align 4, !tbaa !7
  call void @llvm.lifetime.end.p0(i64 8, ptr %5) #3
  br label %28

25:                                               ; preds = %2
  br label %26

26:                                               ; preds = %25
  br label %27

27:                                               ; preds = %26
  br label %28

28:                                               ; preds = %27, %22
  ret void
}