; Function Attrs: nounwind uwtable
define void @lv_event_set_ext_draw_size(ptr noundef %0, i32 noundef %1) local_unnamed_addr #0 {
  %3 = getelementptr inbounds nuw i8, ptr %0, i64 16
  %4 = load i32, ptr %3, align 8, !tbaa !10
  %5 = icmp eq i32 %4, 27
  br i1 %5, label %6, label %9

6:                                                ; preds = %2
  %7 = tail call ptr @lv_event_get_param(ptr noundef nonnull %0) #4
  %8 = load i32, ptr %7, align 4, !tbaa !28
  %. = tail call i32 @llvm.smax.i32(i32 %8, i32 %1)
  store i32 %., ptr %7, align 4, !tbaa !28
  br label %9

9:                                                ; preds = %2, %6
  ret void
}